target datalayout = "e-m:e-p270:32:32-p271:32:32-p272:64:64-i64:64-i128:128-f80:128-n8:16:32:64-S128"
target triple = "x86_64-pc-linux-gnu"

%"class.std::__cxx11::basic_string" = type { %"struct.std::__cxx11::basic_string<char>::_Alloc_hider", i64, %union.anon }
%"struct.std::__cxx11::basic_string<char>::_Alloc_hider" = type { ptr }
%union.anon = type { i64, [8 x i8] }
%"class.mu::ParserTokenReader" = type <{ ptr, %"class.std::__cxx11::basic_string", i32, i32, i8, [7 x i8], ptr, ptr, ptr, ptr, ptr, ptr, ptr, ptr, ptr, %"class.std::__cxx11::list", %"class.std::map", double, %"class.std::stack", %"class.mu::ParserToken", i8, [7 x i8] }>
%"class.std::__cxx11::list" = type { %"class.std::__cxx11::_List_base" }
%"class.std::__cxx11::_List_base" = type { %"struct.std::__cxx11::_List_base<int (*)(const char *, int *, double *), std::allocator<int (*)(const char *, int *, double *)>>::_List_impl" }
%"struct.std::__cxx11::_List_base<int (*)(const char *, int *, double *), std::allocator<int (*)(const char *, int *, double *)>>::_List_impl" = type { %"struct.std::__detail::_List_node_header" }
%"struct.std::__detail::_List_node_header" = type { %"struct.std::__detail::_List_node_base", i64 }
%"struct.std::__detail::_List_node_base" = type { ptr, ptr }
%"class.std::map" = type { %"class.std::_Rb_tree" }
%"class.std::_Rb_tree" = type { %"struct.std::_Rb_tree<std::__cxx11::basic_string<char>, std::pair<const std::__cxx11::basic_string<char>, double *>, std::_Select1st<std::pair<const std::__cxx11::basic_string<char>, double *>>, std::less<std::__cxx11::basic_string<char>>>::_Rb_tree_impl" }
%"struct.std::_Rb_tree<std::__cxx11::basic_string<char>, std::pair<const std::__cxx11::basic_string<char>, double *>, std::_Select1st<std::pair<const std::__cxx11::basic_string<char>, double *>>, std::less<std::__cxx11::basic_string<char>>>::_Rb_tree_impl" = type { [8 x i8], %"struct.std::_Rb_tree_header" }
%"struct.std::_Rb_tree_header" = type { %"struct.std::_Rb_tree_node_base", i64 }
%"struct.std::_Rb_tree_node_base" = type { i32, ptr, ptr, ptr }
%"class.std::stack" = type { %"class.std::deque" }
%"class.std::deque" = type { %"class.std::_Deque_base" }
%"class.std::_Deque_base" = type { %"struct.std::_Deque_base<int, std::allocator<int>>::_Deque_impl" }
%"struct.std::_Deque_base<int, std::allocator<int>>::_Deque_impl" = type { %"struct.std::_Deque_base<int, std::allocator<int>>::_Deque_impl_data" }
%"struct.std::_Deque_base<int, std::allocator<int>>::_Deque_impl_data" = type { ptr, i64, %"struct.std::_Deque_iterator", %"struct.std::_Deque_iterator" }
%"struct.std::_Deque_iterator" = type { ptr, ptr, ptr, ptr }
%"class.mu::ParserToken" = type { i32, i32, ptr, i32, %"class.std::__cxx11::basic_string", %"class.std::__cxx11::basic_string", double, %"class.std::unique_ptr" }
%"class.std::unique_ptr" = type { %"struct.std::__uniq_ptr_data" }
%"struct.std::__uniq_ptr_data" = type { %"class.std::__uniq_ptr_impl" }
%"class.std::__uniq_ptr_impl" = type { %"class.std::tuple" }
%"class.std::tuple" = type { %"struct.std::_Tuple_impl" }
%"struct.std::_Tuple_impl" = type { %"struct.std::_Head_base.10" }
%"struct.std::_Head_base.10" = type { ptr }
%"class.mu::ParserBase" = type <{ ptr, { i64, i64 }, %"class.mu::ParserByteCode", %"class.std::vector.34", %"class.std::vector.34", %"class.std::unique_ptr.21", %"class.std::map.39", %"class.std::map.39", %"class.std::map.39", %"class.std::map.39", %"class.std::map.44", %"class.std::map.49", %"class.std::map", i8, [7 x i8], %"class.std::__cxx11::basic_string", %"class.std::__cxx11::basic_string", %"class.std::__cxx11::basic_string", %"class.std::vector.54", i32, [4 x i8] }>
%"class.mu::ParserByteCode" = type <{ i32, [4 x i8], i64, %"class.std::vector", i8, [7 x i8] }>
%"class.std::vector" = type { %"struct.std::_Vector_base" }
%"struct.std::_Vector_base" = type { %"struct.std::_Vector_base<mu::SToken, std::allocator<mu::SToken>>::_Vector_impl" }
%"struct.std::_Vector_base<mu::SToken, std::allocator<mu::SToken>>::_Vector_impl" = type { %"struct.std::_Vector_base<mu::SToken, std::allocator<mu::SToken>>::_Vector_impl_data" }
%"struct.std::_Vector_base<mu::SToken, std::allocator<mu::SToken>>::_Vector_impl_data" = type { ptr, ptr, ptr }
%"class.std::vector.34" = type { %"struct.std::_Vector_base.35" }
%"struct.std::_Vector_base.35" = type { %"struct.std::_Vector_base<std::__cxx11::basic_string<char>, std::allocator<std::__cxx11::basic_string<char>>>::_Vector_impl" }
%"struct.std::_Vector_base<std::__cxx11::basic_string<char>, std::allocator<std::__cxx11::basic_string<char>>>::_Vector_impl" = type { %"struct.std::_Vector_base<std::__cxx11::basic_string<char>, std::allocator<std::__cxx11::basic_string<char>>>::_Vector_impl_data" }
%"struct.std::_Vector_base<std::__cxx11::basic_string<char>, std::allocator<std::__cxx11::basic_string<char>>>::_Vector_impl_data" = type { ptr, ptr, ptr }
%"class.std::unique_ptr.21" = type { %"struct.std::__uniq_ptr_data.22" }
%"struct.std::__uniq_ptr_data.22" = type { %"class.std::__uniq_ptr_impl.23" }
%"class.std::__uniq_ptr_impl.23" = type { %"class.std::tuple.24" }
%"class.std::tuple.24" = type { %"struct.std::_Tuple_impl.25" }
%"struct.std::_Tuple_impl.25" = type { %"struct.std::_Head_base.28" }
%"struct.std::_Head_base.28" = type { ptr }
%"class.std::map.39" = type { %"class.std::_Rb_tree.40" }
%"class.std::_Rb_tree.40" = type { %"struct.std::_Rb_tree<std::__cxx11::basic_string<char>, std::pair<const std::__cxx11::basic_string<char>, mu::ParserCallback>, std::_Select1st<std::pair<const std::__cxx11::basic_string<char>, mu::ParserCallback>>, std::less<std::__cxx11::basic_string<char>>>::_Rb_tree_impl" }
%"struct.std::_Rb_tree<std::__cxx11::basic_string<char>, std::pair<const std::__cxx11::basic_string<char>, mu::ParserCallback>, std::_Select1st<std::pair<const std::__cxx11::basic_string<char>, mu::ParserCallback>>, std::less<std::__cxx11::basic_string<char>>>::_Rb_tree_impl" = type { [8 x i8], %"struct.std::_Rb_tree_header" }
%"class.std::map.44" = type { %"class.std::_Rb_tree.45" }
%"class.std::_Rb_tree.45" = type { %"struct.std::_Rb_tree<std::__cxx11::basic_string<char>, std::pair<const std::__cxx11::basic_string<char>, double>, std::_Select1st<std::pair<const std::__cxx11::basic_string<char>, double>>, std::less<std::__cxx11::basic_string<char>>>::_Rb_tree_impl" }
%"struct.std::_Rb_tree<std::__cxx11::basic_string<char>, std::pair<const std::__cxx11::basic_string<char>, double>, std::_Select1st<std::pair<const std::__cxx11::basic_string<char>, double>>, std::less<std::__cxx11::basic_string<char>>>::_Rb_tree_impl" = type { [8 x i8], %"struct.std::_Rb_tree_header" }
%"class.std::map.49" = type { %"class.std::_Rb_tree.50" }
%"class.std::_Rb_tree.50" = type { %"struct.std::_Rb_tree<std::__cxx11::basic_string<char>, std::pair<const std::__cxx11::basic_string<char>, unsigned long>, std::_Select1st<std::pair<const std::__cxx11::basic_string<char>, unsigned long>>, std::less<std::__cxx11::basic_string<char>>>::_Rb_tree_impl" }
%"struct.std::_Rb_tree<std::__cxx11::basic_string<char>, std::pair<const std::__cxx11::basic_string<char>, unsigned long>, std::_Select1st<std::pair<const std::__cxx11::basic_string<char>, unsigned long>>, std::less<std::__cxx11::basic_string<char>>>::_Rb_tree_impl" = type { [8 x i8], %"struct.std::_Rb_tree_header" }
%"class.std::vector.54" = type { %"struct.std::_Vector_base.55" }
%"struct.std::_Vector_base.55" = type { %"struct.std::_Vector_base<double, std::allocator<double>>::_Vector_impl" }
%"struct.std::_Vector_base<double, std::allocator<double>>::_Vector_impl" = type { %"struct.std::_Vector_base<double, std::allocator<double>>::_Vector_impl_data" }
%"struct.std::_Vector_base<double, std::allocator<double>>::_Vector_impl_data" = type { ptr, ptr, ptr }

; Function Attrs: mustprogress nounwind uwtable
define void @_ZN2mu17ParserTokenReader9SetParentEPNS_10ParserBaseE(ptr noundef nonnull align 8 dereferenceable(400) %0, ptr noundef %1) #5 align 2 {
  %3 = alloca ptr, align 8
  %4 = alloca ptr, align 8
  store ptr %0, ptr %3, align 8, !tbaa !32
  store ptr %1, ptr %4, align 8, !tbaa !278
  %5 = load ptr, ptr %3, align 8
  %6 = load ptr, ptr %4, align 8, !tbaa !278
  %7 = getelementptr inbounds nuw %"class.mu::ParserTokenReader", ptr %5, i32 0, i32 0
  store ptr %6, ptr %7, align 8, !tbaa !59
  %8 = load ptr, ptr %4, align 8, !tbaa !278
  %9 = getelementptr inbounds nuw %"class.mu::ParserBase", ptr %8, i32 0, i32 6
  %10 = getelementptr inbounds nuw %"class.mu::ParserTokenReader", ptr %5, i32 0, i32 6
  store ptr %9, ptr %10, align 8, !tbaa !91
  %11 = load ptr, ptr %4, align 8, !tbaa !278
  %12 = getelementptr inbounds nuw %"class.mu::ParserBase", ptr %11, i32 0, i32 9
  %13 = getelementptr inbounds nuw %"class.mu::ParserTokenReader", ptr %5, i32 0, i32 9
  store ptr %12, ptr %13, align 8, !tbaa !97
  %14 = load ptr, ptr %4, align 8, !tbaa !278
  %15 = getelementptr inbounds nuw %"class.mu::ParserBase", ptr %14, i32 0, i32 8
  %16 = getelementptr inbounds nuw %"class.mu::ParserTokenReader", ptr %5, i32 0, i32 8
  store ptr %15, ptr %16, align 8, !tbaa !96
  %17 = load ptr, ptr %4, align 8, !tbaa !278
  %18 = getelementptr inbounds nuw %"class.mu::ParserBase", ptr %17, i32 0, i32 7
  %19 = getelementptr inbounds nuw %"class.mu::ParserTokenReader", ptr %5, i32 0, i32 7
  store ptr %18, ptr %19, align 8, !tbaa !95
  %20 = load ptr, ptr %4, align 8, !tbaa !278
  %21 = getelementptr inbounds nuw %"class.mu::ParserBase", ptr %20, i32 0, i32 12
  %22 = getelementptr inbounds nuw %"class.mu::ParserTokenReader", ptr %5, i32 0, i32 12
  store ptr %21, ptr %22, align 8, !tbaa !93
  %23 = load ptr, ptr %4, align 8, !tbaa !278
  %24 = getelementptr inbounds nuw %"class.mu::ParserBase", ptr %23, i32 0, i32 11
  %25 = getelementptr inbounds nuw %"class.mu::ParserTokenReader", ptr %5, i32 0, i32 11
  store ptr %24, ptr %25, align 8, !tbaa !94
  %26 = load ptr, ptr %4, align 8, !tbaa !278
  %27 = getelementptr inbounds nuw %"class.mu::ParserBase", ptr %26, i32 0, i32 10
  %28 = getelementptr inbounds nuw %"class.mu::ParserTokenReader", ptr %5, i32 0, i32 10
  store ptr %27, ptr %28, align 8, !tbaa !92
  ret void
}