; Function Attrs: mustprogress nofree norecurse nosync nounwind willreturn memory(argmem: write) uwtable
define void @_ZN2mu17ParserTokenReader9SetParentEPNS_10ParserBaseE(ptr noundef nonnull writeonly align 8 captures(none) dereferenceable(400) initializes((0, 8), (56, 112)) %0, ptr noundef %1) local_unnamed_addr #17 align 2 {
  store ptr %1, ptr %0, align 8, !tbaa !48
  %3 = getelementptr inbounds nuw i8, ptr %1, i64 128
  %4 = getelementptr inbounds nuw i8, ptr %0, i64 56
  store ptr %3, ptr %4, align 8, !tbaa !75
  %5 = getelementptr inbounds nuw i8, ptr %1, i64 272
  %6 = getelementptr inbounds nuw i8, ptr %0, i64 80
  store ptr %5, ptr %6, align 8, !tbaa !81
  %7 = getelementptr inbounds nuw i8, ptr %1, i64 224
  %8 = getelementptr inbounds nuw i8, ptr %0, i64 72
  store ptr %7, ptr %8, align 8, !tbaa !80
  %9 = getelementptr inbounds nuw i8, ptr %1, i64 176
  %10 = getelementptr inbounds nuw i8, ptr %0, i64 64
  store ptr %9, ptr %10, align 8, !tbaa !79
  %11 = getelementptr inbounds nuw i8, ptr %1, i64 416
  %12 = getelementptr inbounds nuw i8, ptr %0, i64 104
  store ptr %11, ptr %12, align 8, !tbaa !77
  %13 = getelementptr inbounds nuw i8, ptr %1, i64 368
  %14 = getelementptr inbounds nuw i8, ptr %0, i64 96
  store ptr %13, ptr %14, align 8, !tbaa !78
  %15 = getelementptr inbounds nuw i8, ptr %1, i64 320
  %16 = getelementptr inbounds nuw i8, ptr %0, i64 88
  store ptr %15, ptr %16, align 8, !tbaa !76
  ret void
}